; ModuleID = '23/1004.c'
source_filename = "23/1004.c"
target datalayout = "e-m:e-p270:32:32-p271:32:32-p272:64:64-i64:64-f80:128-n8:16:32:64-S128"
target triple = "x86_64-pc-linux-gnu"

@.str = private unnamed_addr constant [3 x i8] c"%c\00", align 1
@.str.1 = private unnamed_addr constant [2 x i8] c" \00", align 1

; Function Attrs: noinline nounwind uwtable
define dso_local void @main() #0 {
  %1 = alloca i8*, align 8
  %2 = alloca i8*, align 8
  %3 = alloca i8*, align 8
  %4 = alloca i32, align 4
  %5 = alloca i32, align 4
  %6 = alloca i32, align 4
  %7 = call noalias i8* @malloc(i64 100) #4
  store i8* %7, i8** %1, align 8
  %8 = load i8*, i8** %1, align 8
  %9 = call i32 (i8*, ...) bitcast (i32 (...)* @gets to i32 (i8*, ...)*)(i8* %8)
  %10 = load i8*, i8** %1, align 8
  %11 = call i64 @strlen(i8* %10) #5
  %12 = trunc i64 %11 to i32
  store i32 %12, i32* %6, align 4
  %13 = load i32, i32* %6, align 4
  %14 = sub nsw i32 %13, 1
  store i32 %14, i32* %4, align 4
  br label %15

15:                                               ; preds = %70, %0
  %16 = load i32, i32* %4, align 4
  %17 = icmp sge i32 %16, 0
  br i1 %17, label %18, label %73

18:                                               ; preds = %15
  %19 = load i8*, i8** %1, align 8
  %20 = load i32, i32* %4, align 4
  %21 = sext i32 %20 to i64
  %22 = getelementptr inbounds i8, i8* %19, i64 %21
  %23 = load i8, i8* %22, align 1
  %24 = sext i8 %23 to i32
  %25 = icmp ne i32 %24, 32
  br i1 %25, label %26, label %27

26:                                               ; preds = %18
  br label %70

27:                                               ; preds = %18
  %28 = load i8*, i8** %1, align 8
  %29 = load i32, i32* %4, align 4
  %30 = sext i32 %29 to i64
  %31 = getelementptr inbounds i8, i8* %28, i64 %30
  %32 = load i8, i8* %31, align 1
  %33 = sext i8 %32 to i32
  %34 = icmp eq i32 %33, 32
  br i1 %34, label %35, label %68

35:                                               ; preds = %27
  %36 = load i32, i32* %4, align 4
  %37 = add nsw i32 %36, 1
  store i32 %37, i32* %5, align 4
  br label %38

38:                                               ; preds = %64, %35
  %39 = load i8*, i8** %1, align 8
  %40 = load i32, i32* %5, align 4
  %41 = sext i32 %40 to i64
  %42 = getelementptr inbounds i8, i8* %39, i64 %41
  %43 = load i8, i8* %42, align 1
  %44 = sext i8 %43 to i32
  %45 = icmp ne i32 %44, 32
  br i1 %45, label %46, label %54

46:                                               ; preds = %38
  %47 = load i8*, i8** %1, align 8
  %48 = load i32, i32* %5, align 4
  %49 = sext i32 %48 to i64
  %50 = getelementptr inbounds i8, i8* %47, i64 %49
  %51 = load i8, i8* %50, align 1
  %52 = sext i8 %51 to i32
  %53 = icmp ne i32 %52, 0
  br label %54

54:                                               ; preds = %46, %38
  %55 = phi i1 [ false, %38 ], [ %53, %46 ]
  br i1 %55, label %56, label %67

56:                                               ; preds = %54
  %57 = load i8*, i8** %1, align 8
  %58 = load i32, i32* %5, align 4
  %59 = sext i32 %58 to i64
  %60 = getelementptr inbounds i8, i8* %57, i64 %59
  %61 = load i8, i8* %60, align 1
  %62 = sext i8 %61 to i32
  %63 = call i32 (i8*, ...) @printf(i8* getelementptr inbounds ([3 x i8], [3 x i8]* @.str, i64 0, i64 0), i32 %62)
  br label %64

64:                                               ; preds = %56
  %65 = load i32, i32* %5, align 4
  %66 = add nsw i32 %65, 1
  store i32 %66, i32* %5, align 4
  br label %38

67:                                               ; preds = %54
  br label %68

68:                                               ; preds = %67, %27
  %69 = call i32 (i8*, ...) @printf(i8* getelementptr inbounds ([2 x i8], [2 x i8]* @.str.1, i64 0, i64 0))
  br label %70

70:                                               ; preds = %68, %26
  %71 = load i32, i32* %4, align 4
  %72 = add nsw i32 %71, -1
  store i32 %72, i32* %4, align 4
  br label %15

73:                                               ; preds = %15
  store i32 0, i32* %4, align 4
  br label %74

74:                                               ; preds = %100, %73
  %75 = load i8*, i8** %1, align 8
  %76 = load i32, i32* %4, align 4
  %77 = sext i32 %76 to i64
  %78 = getelementptr inbounds i8, i8* %75, i64 %77
  %79 = load i8, i8* %78, align 1
  %80 = sext i8 %79 to i32
  %81 = icmp ne i32 %80, 32
  br i1 %81, label %82, label %90

82:                                               ; preds = %74
  %83 = load i8*, i8** %1, align 8
  %84 = load i32, i32* %4, align 4
  %85 = sext i32 %84 to i64
  %86 = getelementptr inbounds i8, i8* %83, i64 %85
  %87 = load i8, i8* %86, align 1
  %88 = sext i8 %87 to i32
  %89 = icmp ne i32 %88, 0
  br label %90

90:                                               ; preds = %82, %74
  %91 = phi i1 [ false, %74 ], [ %89, %82 ]
  br i1 %91, label %92, label %103

92:                                               ; preds = %90
  %93 = load i8*, i8** %1, align 8
  %94 = load i32, i32* %4, align 4
  %95 = sext i32 %94 to i64
  %96 = getelementptr inbounds i8, i8* %93, i64 %95
  %97 = load i8, i8* %96, align 1
  %98 = sext i8 %97 to i32
  %99 = call i32 (i8*, ...) @printf(i8* getelementptr inbounds ([3 x i8], [3 x i8]* @.str, i64 0, i64 0), i32 %98)
  br label %100

100:                                              ; preds = %92
  %101 = load i32, i32* %4, align 4
  %102 = add nsw i32 %101, 1
  store i32 %102, i32* %4, align 4
  br label %74

103:                                              ; preds = %90
  ret void
}

; Function Attrs: nounwind
declare dso_local noalias i8* @malloc(i64) #1

declare dso_local i32 @gets(...) #2

; Function Attrs: nounwind readonly
declare dso_local i64 @strlen(i8*) #3

declare dso_local i32 @printf(i8*, ...) #2


!llvm.module.flags = !{!0}
!llvm.ident = !{!1}

!0 = !{i32 1, !"wchar_size", i32 4}
!1 = !{!"clang version 10.0.0-4ubuntu1 "}
